target datalayout = "e-m:e-p270:32:32-p271:32:32-p272:64:64-i64:64-i128:128-f80:128-n8:16:32:64-S128"
target triple = "x86_64-pc-linux-gnu"

; Function Attrs: mustprogress uwtable
define noundef ptr @_ZN7rocksdb28NewCompactionMergingIteratorEPKNS_21InternalKeyComparatorEPPNS_20InternalIteratorBaseINS_5SliceEEEiRSt6vectorISt4pairISt10unique_ptrINS_25TruncatedRangeDelIteratorESt14default_deleteISB_EEPPSE_ESaISH_EEPNS_5ArenaEPNS_13InternalStatsE(ptr noundef %0, ptr noundef %1, i32 noundef %2, ptr noundef nonnull align 8 dereferenceable(24) %3, ptr noundef %4, ptr noundef %5) #4 personality ptr @__gxx_personality_v0 {
  %7 = alloca ptr, align 8
  %8 = alloca ptr, align 8
  %9 = alloca ptr, align 8
  %10 = alloca i32, align 4
  %11 = alloca ptr, align 8
  %12 = alloca ptr, align 8
  %13 = alloca ptr, align 8
  %14 = alloca ptr, align 8
  %15 = alloca i32, align 4
  %16 = alloca ptr, align 8
  store ptr %0, ptr %8, align 8, !tbaa !10
  store ptr %1, ptr %9, align 8, !tbaa !181
  store i32 %2, ptr %10, align 4, !tbaa !15
  store ptr %3, ptr %11, align 8, !tbaa !183
  store ptr %4, ptr %12, align 8, !tbaa !185
  store ptr %5, ptr %13, align 8, !tbaa !187
  %17 = load i32, ptr %10, align 4, !tbaa !15
  %18 = icmp eq i32 %17, 0
  br i1 %18, label %19, label %22

19:                                               ; preds = %6
  %20 = load ptr, ptr %12, align 8, !tbaa !185
  %21 = call noundef ptr @_ZN7rocksdb24NewEmptyInternalIteratorINS_5SliceEEEPNS_20InternalIteratorBaseIT_EEPNS_5ArenaE(ptr noundef %20)
  store ptr %21, ptr %7, align 8
  br label %49

22:                                               ; preds = %6
  %23 = load ptr, ptr %12, align 8, !tbaa !185
  %24 = icmp eq ptr %23, null
  br i1 %24, label %25, label %37

25:                                               ; preds = %22
  %26 = call noalias noundef nonnull ptr @_Znwm(i64 noundef 328) #22
  %27 = load ptr, ptr %8, align 8, !tbaa !10
  %28 = load ptr, ptr %9, align 8, !tbaa !181
  %29 = load i32, ptr %10, align 4, !tbaa !15
  %30 = load ptr, ptr %11, align 8, !tbaa !183
  %31 = load ptr, ptr %13, align 8, !tbaa !187
  invoke void @_ZN7rocksdb25CompactionMergingIteratorC2EPKNS_21InternalKeyComparatorEPPNS_20InternalIteratorBaseINS_5SliceEEEibRSt6vectorISt4pairISt10unique_ptrINS_25TruncatedRangeDelIteratorESt14default_deleteISC_EEPPSF_ESaISI_EEPNS_13InternalStatsE(ptr noundef nonnull align 8 dereferenceable(328) %26, ptr noundef %27, ptr noundef %28, i32 noundef %29, i1 noundef zeroext false, ptr noundef nonnull align 8 dereferenceable(24) %30, ptr noundef %31)
          to label %32 unwind label %33

32:                                               ; preds = %25
  store ptr %26, ptr %7, align 8
  br label %49

33:                                               ; preds = %25
  %34 = landingpad { ptr, i32 }
          cleanup
  %35 = extractvalue { ptr, i32 } %34, 0
  store ptr %35, ptr %14, align 8
  %36 = extractvalue { ptr, i32 } %34, 1
  store i32 %36, ptr %15, align 4
  call void @_ZdlPvm(ptr noundef %26, i64 noundef 328) #23
  br label %51

37:                                               ; preds = %22
  call void @llvm.lifetime.start.p0(i64 8, ptr %16) #6
  %38 = load ptr, ptr %12, align 8, !tbaa !185
  %39 = load ptr, ptr %38, align 16, !tbaa !26
  %40 = getelementptr inbounds ptr, ptr %39, i64 3
  %41 = load ptr, ptr %40, align 8
  %42 = call noundef ptr %41(ptr noundef nonnull align 16 dereferenceable(2288) %38, i64 noundef 328, i64 noundef 0, ptr noundef null)
  store ptr %42, ptr %16, align 8, !tbaa !28
  %43 = load ptr, ptr %16, align 8, !tbaa !28
  %44 = load ptr, ptr %8, align 8, !tbaa !10
  %45 = load ptr, ptr %9, align 8, !tbaa !181
  %46 = load i32, ptr %10, align 4, !tbaa !15
  %47 = load ptr, ptr %11, align 8, !tbaa !183
  %48 = load ptr, ptr %13, align 8, !tbaa !187
  call void @_ZN7rocksdb25CompactionMergingIteratorC2EPKNS_21InternalKeyComparatorEPPNS_20InternalIteratorBaseINS_5SliceEEEibRSt6vectorISt4pairISt10unique_ptrINS_25TruncatedRangeDelIteratorESt14default_deleteISC_EEPPSF_ESaISI_EEPNS_13InternalStatsE(ptr noundef nonnull align 8 dereferenceable(328) %43, ptr noundef %44, ptr noundef %45, i32 noundef %46, i1 noundef zeroext true, ptr noundef nonnull align 8 dereferenceable(24) %47, ptr noundef %48)
  store ptr %43, ptr %7, align 8
  call void @llvm.lifetime.end.p0(i64 8, ptr %16) #6
  br label %49

49:                                               ; preds = %37, %32, %19
  %50 = load ptr, ptr %7, align 8
  ret ptr %50

51:                                               ; preds = %33
  %52 = load ptr, ptr %14, align 8
  %53 = load i32, ptr %15, align 4
  %54 = insertvalue { ptr, i32 } poison, ptr %52, 0
  %55 = insertvalue { ptr, i32 } %54, i32 %53, 1
  resume { ptr, i32 } %55
}