; Function Attrs: mustprogress uwtable
define noundef ptr @_ZN7rocksdb28NewCompactionMergingIteratorEPKNS_21InternalKeyComparatorEPPNS_20InternalIteratorBaseINS_5SliceEEEiRSt6vectorISt4pairISt10unique_ptrINS_25TruncatedRangeDelIteratorESt14default_deleteISB_EEPPSE_ESaISH_EEPNS_5ArenaEPNS_13InternalStatsE(ptr noundef %0, ptr noundef %1, i32 noundef %2, ptr noundef nonnull align 8 dereferenceable(24) %3, ptr noundef %4, ptr noundef %5) local_unnamed_addr #4 personality ptr @__gxx_personality_v0 {
  %7 = icmp eq i32 %2, 0
  br i1 %7, label %8, label %10

8:                                                ; preds = %6
  %9 = tail call noundef ptr @_ZN7rocksdb24NewEmptyInternalIteratorINS_5SliceEEEPNS_20InternalIteratorBaseIT_EEPNS_5ArenaE(ptr noundef %4)
  br label %21

10:                                               ; preds = %6
  %11 = icmp eq ptr %4, null
  br i1 %11, label %12, label %16

12:                                               ; preds = %10
  %13 = tail call noalias noundef nonnull dereferenceable(328) ptr @_Znwm(i64 noundef 328) #22
  invoke void @_ZN7rocksdb25CompactionMergingIteratorC2EPKNS_21InternalKeyComparatorEPPNS_20InternalIteratorBaseINS_5SliceEEEibRSt6vectorISt4pairISt10unique_ptrINS_25TruncatedRangeDelIteratorESt14default_deleteISC_EEPPSF_ESaISI_EEPNS_13InternalStatsE(ptr noundef nonnull align 8 dereferenceable(328) %13, ptr noundef %0, ptr noundef %1, i32 noundef %2, i1 noundef zeroext false, ptr noundef nonnull align 8 dereferenceable(24) %3, ptr noundef %5)
          to label %21 unwind label %14

14:                                               ; preds = %12
  %15 = landingpad { ptr, i32 }
          cleanup
  tail call void @_ZdlPvm(ptr noundef nonnull %13, i64 noundef 328) #20
  resume { ptr, i32 } %15

16:                                               ; preds = %10
  %17 = load ptr, ptr %4, align 16, !tbaa !46
  %18 = getelementptr inbounds nuw i8, ptr %17, i64 24
  %19 = load ptr, ptr %18, align 8
  %20 = tail call noundef ptr %19(ptr noundef nonnull align 16 dereferenceable(2288) %4, i64 noundef 328, i64 noundef 0, ptr noundef null)
  tail call void @_ZN7rocksdb25CompactionMergingIteratorC2EPKNS_21InternalKeyComparatorEPPNS_20InternalIteratorBaseINS_5SliceEEEibRSt6vectorISt4pairISt10unique_ptrINS_25TruncatedRangeDelIteratorESt14default_deleteISC_EEPPSF_ESaISI_EEPNS_13InternalStatsE(ptr noundef nonnull align 8 dereferenceable(328) %20, ptr noundef %0, ptr noundef %1, i32 noundef %2, i1 noundef zeroext true, ptr noundef nonnull align 8 dereferenceable(24) %3, ptr noundef %5)
  br label %21

21:                                               ; preds = %12, %16, %8
  %.0 = phi ptr [ %9, %8 ], [ %20, %16 ], [ %13, %12 ]
  ret ptr %.0
}